target datalayout = "e-m:e-p270:32:32-p271:32:32-p272:64:64-i64:64-i128:128-f80:128-n8:16:32:64-S128"
target triple = "x86_64-pc-linux-gnu"

%"class.Imath_3_2::Vec2" = type { float, float }
%"class.Imath_3_2::Vec3" = type { float, float, float }
%"class.Imath_3_2::Box" = type { %"class.Imath_3_2::Vec2.0", %"class.Imath_3_2::Vec2.0" }
%"class.Imath_3_2::Vec2.0" = type { i32, i32 }

; Function Attrs: inlinehint mustprogress nounwind uwtable
define linkonce_odr noundef nonnull align 4 dereferenceable(4) ptr @_ZSt3minIiERKT_S2_S2_(ptr noundef nonnull align 4 dereferenceable(4) %0, ptr noundef nonnull align 4 dereferenceable(4) %1) #6 comdat {
  %3 = alloca ptr, align 8
  %4 = alloca ptr, align 8
  %5 = alloca ptr, align 8
  store ptr %0, ptr %4, align 8, !tbaa !29
  store ptr %1, ptr %5, align 8, !tbaa !29
  %6 = load ptr, ptr %5, align 8, !tbaa !29
  %7 = load i32, ptr %6, align 4, !tbaa !14
  %8 = load ptr, ptr %4, align 8, !tbaa !29
  %9 = load i32, ptr %8, align 4, !tbaa !14
  %10 = icmp slt i32 %7, %9
  br i1 %10, label %11, label %13

11:                                               ; preds = %2
  %12 = load ptr, ptr %5, align 8, !tbaa !29
  store ptr %12, ptr %3, align 8
  br label %15

13:                                               ; preds = %2
  %14 = load ptr, ptr %4, align 8, !tbaa !29
  store ptr %14, ptr %3, align 8
  br label %15

15:                                               ; preds = %13, %11
  %16 = load ptr, ptr %3, align 8
  ret ptr %16
}

; Function Attrs: inlinehint mustprogress nounwind uwtable
define linkonce_odr hidden noundef nonnull align 4 dereferenceable(8) ptr @_ZN9Imath_3_24Vec2IfEaSERKS1_(ptr noundef nonnull align 4 dereferenceable(8) %0, ptr noundef nonnull align 4 dereferenceable(8) %1) #6 comdat align 2 {
  %3 = alloca ptr, align 8
  %4 = alloca ptr, align 8
  store ptr %0, ptr %3, align 8, !tbaa !16
  store ptr %1, ptr %4, align 8, !tbaa !16
  %5 = load ptr, ptr %3, align 8
  %6 = load ptr, ptr %4, align 8, !tbaa !16
  %7 = getelementptr inbounds nuw %"class.Imath_3_2::Vec2", ptr %6, i32 0, i32 0
  %8 = load float, ptr %7, align 4, !tbaa !18
  %9 = getelementptr inbounds nuw %"class.Imath_3_2::Vec2", ptr %5, i32 0, i32 0
  store float %8, ptr %9, align 4, !tbaa !18
  %10 = load ptr, ptr %4, align 8, !tbaa !16
  %11 = getelementptr inbounds nuw %"class.Imath_3_2::Vec2", ptr %10, i32 0, i32 1
  %12 = load float, ptr %11, align 4, !tbaa !20
  %13 = getelementptr inbounds nuw %"class.Imath_3_2::Vec2", ptr %5, i32 0, i32 1
  store float %12, ptr %13, align 4, !tbaa !20
  ret ptr %5
}

; Function Attrs: inlinehint mustprogress nounwind uwtable
define linkonce_odr hidden void @_ZN9Imath_3_24Vec2IfEC2Eff(ptr noundef nonnull align 4 dereferenceable(8) %0, float noundef %1, float noundef %2) unnamed_addr #6 comdat align 2 {
  %4 = alloca ptr, align 8
  %5 = alloca float, align 4
  %6 = alloca float, align 4
  store ptr %0, ptr %4, align 8, !tbaa !16
  store float %1, ptr %5, align 4, !tbaa !12
  store float %2, ptr %6, align 4, !tbaa !12
  %7 = load ptr, ptr %4, align 8
  %8 = getelementptr inbounds nuw %"class.Imath_3_2::Vec2", ptr %7, i32 0, i32 0
  %9 = load float, ptr %5, align 4, !tbaa !12
  store float %9, ptr %8, align 4, !tbaa !18
  %10 = getelementptr inbounds nuw %"class.Imath_3_2::Vec2", ptr %7, i32 0, i32 1
  %11 = load float, ptr %6, align 4, !tbaa !12
  store float %11, ptr %10, align 4, !tbaa !20
  ret void
}

; Function Attrs: inlinehint mustprogress nounwind uwtable
define linkonce_odr noundef float @_ZSt3absf(float noundef %0) #6 comdat {
  %2 = alloca float, align 4
  store float %0, ptr %2, align 4, !tbaa !12
  %3 = load float, ptr %2, align 4, !tbaa !12
  %4 = call float @llvm.fabs.f32(float %3)
  ret float %4
}

; Function Attrs: mustprogress uwtable
define noundef i32 @_ZN7Imf_3_47CubeMap10sizeOfFaceERKN9Imath_3_23BoxINS1_4Vec2IiEEEE(ptr noundef nonnull align 4 dereferenceable(16) %0) #4 {
  %2 = alloca ptr, align 8
  %3 = alloca i32, align 4
  %4 = alloca i32, align 4
  store ptr %0, ptr %2, align 8, !tbaa !21
  call void @llvm.lifetime.start.p0(i64 4, ptr %3) #3
  %5 = load ptr, ptr %2, align 8, !tbaa !21
  %6 = getelementptr inbounds nuw %"class.Imath_3_2::Box", ptr %5, i32 0, i32 1
  %7 = getelementptr inbounds nuw %"class.Imath_3_2::Vec2.0", ptr %6, i32 0, i32 0
  %8 = load i32, ptr %7, align 4, !tbaa !27
  %9 = load ptr, ptr %2, align 8, !tbaa !21
  %10 = getelementptr inbounds nuw %"class.Imath_3_2::Box", ptr %9, i32 0, i32 0
  %11 = getelementptr inbounds nuw %"class.Imath_3_2::Vec2.0", ptr %10, i32 0, i32 0
  %12 = load i32, ptr %11, align 4, !tbaa !28
  %13 = sub nsw i32 %8, %12
  %14 = add nsw i32 %13, 1
  store i32 %14, ptr %3, align 4, !tbaa !14
  call void @llvm.lifetime.start.p0(i64 4, ptr %4) #3
  %15 = load ptr, ptr %2, align 8, !tbaa !21
  %16 = getelementptr inbounds nuw %"class.Imath_3_2::Box", ptr %15, i32 0, i32 1
  %17 = getelementptr inbounds nuw %"class.Imath_3_2::Vec2.0", ptr %16, i32 0, i32 1
  %18 = load i32, ptr %17, align 4, !tbaa !23
  %19 = load ptr, ptr %2, align 8, !tbaa !21
  %20 = getelementptr inbounds nuw %"class.Imath_3_2::Box", ptr %19, i32 0, i32 0
  %21 = getelementptr inbounds nuw %"class.Imath_3_2::Vec2.0", ptr %20, i32 0, i32 1
  %22 = load i32, ptr %21, align 4, !tbaa !26
  %23 = sub nsw i32 %18, %22
  %24 = add nsw i32 %23, 1
  %25 = sdiv i32 %24, 6
  store i32 %25, ptr %4, align 4, !tbaa !14
  %26 = call noundef nonnull align 4 dereferenceable(4) ptr @_ZSt3minIiERKT_S2_S2_(ptr noundef nonnull align 4 dereferenceable(4) %3, ptr noundef nonnull align 4 dereferenceable(4) %4)
  %27 = load i32, ptr %26, align 4, !tbaa !14
  call void @llvm.lifetime.end.p0(i64 4, ptr %4) #3
  call void @llvm.lifetime.end.p0(i64 4, ptr %3) #3
  ret i32 %27
}

; Function Attrs: mustprogress uwtable
define void @_ZN7Imf_3_47CubeMap20faceAndPixelPositionERKN9Imath_3_24Vec3IfEERKNS1_3BoxINS1_4Vec2IiEEEERNS_11CubeMapFaceERNS7_IfEE(ptr noundef nonnull align 4 dereferenceable(12) %0, ptr noundef nonnull align 4 dereferenceable(16) %1, ptr noundef nonnull align 4 dereferenceable(4) %2, ptr noundef nonnull align 4 dereferenceable(8) %3) #4 {
  %5 = alloca ptr, align 8
  %6 = alloca ptr, align 8
  %7 = alloca ptr, align 8
  %8 = alloca ptr, align 8
  %9 = alloca i32, align 4
  %10 = alloca float, align 4
  %11 = alloca float, align 4
  %12 = alloca float, align 4
  %13 = alloca %"class.Imath_3_2::Vec2", align 4
  %14 = alloca i32, align 4
  store ptr %0, ptr %5, align 8, !tbaa !3
  store ptr %1, ptr %6, align 8, !tbaa !21
  store ptr %2, ptr %7, align 8, !tbaa !33
  store ptr %3, ptr %8, align 8, !tbaa !16
  call void @llvm.lifetime.start.p0(i64 4, ptr %9) #3
  %15 = load ptr, ptr %6, align 8, !tbaa !21
  %16 = call noundef i32 @_ZN7Imf_3_47CubeMap10sizeOfFaceERKN9Imath_3_23BoxINS1_4Vec2IiEEEE(ptr noundef nonnull align 4 dereferenceable(16) %15)
  store i32 %16, ptr %9, align 4, !tbaa !14
  call void @llvm.lifetime.start.p0(i64 4, ptr %10) #3
  %17 = load ptr, ptr %5, align 8, !tbaa !3
  %18 = getelementptr inbounds nuw %"class.Imath_3_2::Vec3", ptr %17, i32 0, i32 0
  %19 = load float, ptr %18, align 4, !tbaa !11
  %20 = call noundef float @_ZSt3absf(float noundef %19)
  store float %20, ptr %10, align 4, !tbaa !12
  call void @llvm.lifetime.start.p0(i64 4, ptr %11) #3
  %21 = load ptr, ptr %5, align 8, !tbaa !3
  %22 = getelementptr inbounds nuw %"class.Imath_3_2::Vec3", ptr %21, i32 0, i32 1
  %23 = load float, ptr %22, align 4, !tbaa !13
  %24 = call noundef float @_ZSt3absf(float noundef %23)
  store float %24, ptr %11, align 4, !tbaa !12
  call void @llvm.lifetime.start.p0(i64 4, ptr %12) #3
  %25 = load ptr, ptr %5, align 8, !tbaa !3
  %26 = getelementptr inbounds nuw %"class.Imath_3_2::Vec3", ptr %25, i32 0, i32 2
  %27 = load float, ptr %26, align 4, !tbaa !8
  %28 = call noundef float @_ZSt3absf(float noundef %27)
  store float %28, ptr %12, align 4, !tbaa !12
  %29 = load float, ptr %10, align 4, !tbaa !12
  %30 = load float, ptr %11, align 4, !tbaa !12
  %31 = fcmp oge float %29, %30
  br i1 %31, label %32, label %79

32:                                               ; preds = %4
  %33 = load float, ptr %10, align 4, !tbaa !12
  %34 = load float, ptr %12, align 4, !tbaa !12
  %35 = fcmp oge float %33, %34
  br i1 %35, label %36, label %79

36:                                               ; preds = %32
  %37 = load float, ptr %10, align 4, !tbaa !12
  %38 = fcmp oeq float %37, 0.000000e+00
  br i1 %38, label %39, label %43

39:                                               ; preds = %36
  %40 = load ptr, ptr %7, align 8, !tbaa !33
  store i32 0, ptr %40, align 4, !tbaa !31
  call void @llvm.lifetime.start.p0(i64 8, ptr %13) #3
  call void @_ZN9Imath_3_24Vec2IfEC2Eff(ptr noundef nonnull align 4 dereferenceable(8) %13, float noundef 0.000000e+00, float noundef 0.000000e+00) #3
  %41 = load ptr, ptr %8, align 8, !tbaa !16
  %42 = call noundef nonnull align 4 dereferenceable(8) ptr @_ZN9Imath_3_24Vec2IfEaSERKS1_(ptr noundef nonnull align 4 dereferenceable(8) %41, ptr noundef nonnull align 4 dereferenceable(8) %13) #3
  call void @llvm.lifetime.end.p0(i64 8, ptr %13) #3
  store i32 1, ptr %14, align 4
  br label %157

43:                                               ; preds = %36
  %44 = load ptr, ptr %5, align 8, !tbaa !3
  %45 = getelementptr inbounds nuw %"class.Imath_3_2::Vec3", ptr %44, i32 0, i32 1
  %46 = load float, ptr %45, align 4, !tbaa !13
  %47 = load float, ptr %10, align 4, !tbaa !12
  %48 = fdiv float %46, %47
  %49 = fadd float %48, 1.000000e+00
  %50 = fdiv float %49, 2.000000e+00
  %51 = load i32, ptr %9, align 4, !tbaa !14
  %52 = sub nsw i32 %51, 1
  %53 = sitofp i32 %52 to float
  %54 = fmul float %50, %53
  %55 = load ptr, ptr %8, align 8, !tbaa !16
  %56 = getelementptr inbounds nuw %"class.Imath_3_2::Vec2", ptr %55, i32 0, i32 0
  store float %54, ptr %56, align 4, !tbaa !18
  %57 = load ptr, ptr %5, align 8, !tbaa !3
  %58 = getelementptr inbounds nuw %"class.Imath_3_2::Vec3", ptr %57, i32 0, i32 2
  %59 = load float, ptr %58, align 4, !tbaa !8
  %60 = load float, ptr %10, align 4, !tbaa !12
  %61 = fdiv float %59, %60
  %62 = fadd float %61, 1.000000e+00
  %63 = fdiv float %62, 2.000000e+00
  %64 = load i32, ptr %9, align 4, !tbaa !14
  %65 = sub nsw i32 %64, 1
  %66 = sitofp i32 %65 to float
  %67 = fmul float %63, %66
  %68 = load ptr, ptr %8, align 8, !tbaa !16
  %69 = getelementptr inbounds nuw %"class.Imath_3_2::Vec2", ptr %68, i32 0, i32 1
  store float %67, ptr %69, align 4, !tbaa !20
  %70 = load ptr, ptr %5, align 8, !tbaa !3
  %71 = getelementptr inbounds nuw %"class.Imath_3_2::Vec3", ptr %70, i32 0, i32 0
  %72 = load float, ptr %71, align 4, !tbaa !11
  %73 = fcmp ogt float %72, 0.000000e+00
  br i1 %73, label %74, label %76

74:                                               ; preds = %43
  %75 = load ptr, ptr %7, align 8, !tbaa !33
  store i32 0, ptr %75, align 4, !tbaa !31
  br label %78

76:                                               ; preds = %43
  %77 = load ptr, ptr %7, align 8, !tbaa !33
  store i32 1, ptr %77, align 4, !tbaa !31
  br label %78

78:                                               ; preds = %76, %74
  br label %156

79:                                               ; preds = %32, %4
  %80 = load float, ptr %11, align 4, !tbaa !12
  %81 = load float, ptr %12, align 4, !tbaa !12
  %82 = fcmp oge float %80, %81
  br i1 %82, label %83, label %119

83:                                               ; preds = %79
  %84 = load ptr, ptr %5, align 8, !tbaa !3
  %85 = getelementptr inbounds nuw %"class.Imath_3_2::Vec3", ptr %84, i32 0, i32 0
  %86 = load float, ptr %85, align 4, !tbaa !11
  %87 = load float, ptr %11, align 4, !tbaa !12
  %88 = fdiv float %86, %87
  %89 = fadd float %88, 1.000000e+00
  %90 = fdiv float %89, 2.000000e+00
  %91 = load i32, ptr %9, align 4, !tbaa !14
  %92 = sub nsw i32 %91, 1
  %93 = sitofp i32 %92 to float
  %94 = fmul float %90, %93
  %95 = load ptr, ptr %8, align 8, !tbaa !16
  %96 = getelementptr inbounds nuw %"class.Imath_3_2::Vec2", ptr %95, i32 0, i32 0
  store float %94, ptr %96, align 4, !tbaa !18
  %97 = load ptr, ptr %5, align 8, !tbaa !3
  %98 = getelementptr inbounds nuw %"class.Imath_3_2::Vec3", ptr %97, i32 0, i32 2
  %99 = load float, ptr %98, align 4, !tbaa !8
  %100 = load float, ptr %11, align 4, !tbaa !12
  %101 = fdiv float %99, %100
  %102 = fadd float %101, 1.000000e+00
  %103 = fdiv float %102, 2.000000e+00
  %104 = load i32, ptr %9, align 4, !tbaa !14
  %105 = sub nsw i32 %104, 1
  %106 = sitofp i32 %105 to float
  %107 = fmul float %103, %106
  %108 = load ptr, ptr %8, align 8, !tbaa !16
  %109 = getelementptr inbounds nuw %"class.Imath_3_2::Vec2", ptr %108, i32 0, i32 1
  store float %107, ptr %109, align 4, !tbaa !20
  %110 = load ptr, ptr %5, align 8, !tbaa !3
  %111 = getelementptr inbounds nuw %"class.Imath_3_2::Vec3", ptr %110, i32 0, i32 1
  %112 = load float, ptr %111, align 4, !tbaa !13
  %113 = fcmp ogt float %112, 0.000000e+00
  br i1 %113, label %114, label %116

114:                                              ; preds = %83
  %115 = load ptr, ptr %7, align 8, !tbaa !33
  store i32 2, ptr %115, align 4, !tbaa !31
  br label %118

116:                                              ; preds = %83
  %117 = load ptr, ptr %7, align 8, !tbaa !33
  store i32 3, ptr %117, align 4, !tbaa !31
  br label %118

118:                                              ; preds = %116, %114
  br label %155

119:                                              ; preds = %79
  %120 = load ptr, ptr %5, align 8, !tbaa !3
  %121 = getelementptr inbounds nuw %"class.Imath_3_2::Vec3", ptr %120, i32 0, i32 0
  %122 = load float, ptr %121, align 4, !tbaa !11
  %123 = load float, ptr %12, align 4, !tbaa !12
  %124 = fdiv float %122, %123
  %125 = fadd float %124, 1.000000e+00
  %126 = fdiv float %125, 2.000000e+00
  %127 = load i32, ptr %9, align 4, !tbaa !14
  %128 = sub nsw i32 %127, 1
  %129 = sitofp i32 %128 to float
  %130 = fmul float %126, %129
  %131 = load ptr, ptr %8, align 8, !tbaa !16
  %132 = getelementptr inbounds nuw %"class.Imath_3_2::Vec2", ptr %131, i32 0, i32 0
  store float %130, ptr %132, align 4, !tbaa !18
  %133 = load ptr, ptr %5, align 8, !tbaa !3
  %134 = getelementptr inbounds nuw %"class.Imath_3_2::Vec3", ptr %133, i32 0, i32 1
  %135 = load float, ptr %134, align 4, !tbaa !13
  %136 = load float, ptr %12, align 4, !tbaa !12
  %137 = fdiv float %135, %136
  %138 = fadd float %137, 1.000000e+00
  %139 = fdiv float %138, 2.000000e+00
  %140 = load i32, ptr %9, align 4, !tbaa !14
  %141 = sub nsw i32 %140, 1
  %142 = sitofp i32 %141 to float
  %143 = fmul float %139, %142
  %144 = load ptr, ptr %8, align 8, !tbaa !16
  %145 = getelementptr inbounds nuw %"class.Imath_3_2::Vec2", ptr %144, i32 0, i32 1
  store float %143, ptr %145, align 4, !tbaa !20
  %146 = load ptr, ptr %5, align 8, !tbaa !3
  %147 = getelementptr inbounds nuw %"class.Imath_3_2::Vec3", ptr %146, i32 0, i32 2
  %148 = load float, ptr %147, align 4, !tbaa !8
  %149 = fcmp ogt float %148, 0.000000e+00
  br i1 %149, label %150, label %152

150:                                              ; preds = %119
  %151 = load ptr, ptr %7, align 8, !tbaa !33
  store i32 4, ptr %151, align 4, !tbaa !31
  br label %154

152:                                              ; preds = %119
  %153 = load ptr, ptr %7, align 8, !tbaa !33
  store i32 5, ptr %153, align 4, !tbaa !31
  br label %154

154:                                              ; preds = %152, %150
  br label %155

155:                                              ; preds = %154, %118
  br label %156

156:                                              ; preds = %155, %78
  store i32 0, ptr %14, align 4
  br label %157

157:                                              ; preds = %156, %39
  call void @llvm.lifetime.end.p0(i64 4, ptr %12) #3
  call void @llvm.lifetime.end.p0(i64 4, ptr %11) #3
  call void @llvm.lifetime.end.p0(i64 4, ptr %10) #3
  call void @llvm.lifetime.end.p0(i64 4, ptr %9) #3
  %158 = load i32, ptr %14, align 4
  switch i32 %158, label %160 [
    i32 0, label %159
    i32 1, label %159
  ]

159:                                              ; preds = %157, %157
  ret void

160:                                              ; preds = %157
  unreachable
}