; Function Attrs: mustprogress nofree norecurse nosync nounwind willreturn memory(argmem: readwrite) uwtable
define void @_ZN7Imf_3_47CubeMap20faceAndPixelPositionERKN9Imath_3_24Vec3IfEERKNS1_3BoxINS1_4Vec2IiEEEERNS_11CubeMapFaceERNS7_IfEE(ptr noundef nonnull readonly align 4 captures(none) dereferenceable(12) %0, ptr noundef nonnull readonly align 4 captures(none) dereferenceable(16) %1, ptr noundef nonnull writeonly align 4 captures(none) dereferenceable(4) initializes((0, 4)) %2, ptr noundef nonnull writeonly align 4 captures(none) dereferenceable(8) initializes((0, 8)) %3) local_unnamed_addr #5 {
  %5 = getelementptr inbounds nuw i8, ptr %1, i64 8
  %6 = load i32, ptr %5, align 4, !tbaa !20
  %7 = load i32, ptr %1, align 4, !tbaa !21
  %8 = add i32 %6, 1
  %9 = sub i32 %8, %7
  %10 = getelementptr inbounds nuw i8, ptr %1, i64 12
  %11 = load i32, ptr %10, align 4, !tbaa !16
  %12 = getelementptr inbounds nuw i8, ptr %1, i64 4
  %13 = load i32, ptr %12, align 4, !tbaa !19
  %14 = add i32 %11, 1
  %15 = sub i32 %14, %13
  %16 = sdiv i32 %15, 6
  %.sroa.speculated.i = tail call noundef range(i32 -2147483647, 357913942) i32 @llvm.smin.i32(i32 %16, i32 %9)
  %17 = load float, ptr %0, align 4, !tbaa !8
  %18 = tail call noundef float @llvm.fabs.f32(float %17)
  %19 = getelementptr inbounds nuw i8, ptr %0, i64 4
  %20 = load float, ptr %19, align 4, !tbaa !9
  %21 = tail call noundef float @llvm.fabs.f32(float %20)
  %22 = getelementptr inbounds nuw i8, ptr %0, i64 8
  %23 = load float, ptr %22, align 4, !tbaa !3
  %24 = tail call noundef float @llvm.fabs.f32(float %23)
  %25 = fcmp ult float %18, %21
  %26 = fcmp ult float %18, %24
  %or.cond = or i1 %25, %26
  br i1 %or.cond, label %46, label %27

27:                                               ; preds = %4
  %28 = fcmp oeq float %17, 0.000000e+00
  br i1 %28, label %29, label %31

29:                                               ; preds = %27
  store i32 0, ptr %2, align 4, !tbaa !34
  store float 0.000000e+00, ptr %3, align 4, !tbaa !13
  %30 = getelementptr inbounds nuw i8, ptr %3, i64 4
  store float 0.000000e+00, ptr %30, align 4, !tbaa !15
  br label %75

31:                                               ; preds = %27
  %32 = fdiv float %20, %18
  %33 = fadd float %32, 1.000000e+00
  %34 = fmul float %33, 5.000000e-01
  %35 = add nsw i32 %.sroa.speculated.i, -1
  %36 = sitofp i32 %35 to float
  %37 = fmul float %34, %36
  store float %37, ptr %3, align 4, !tbaa !13
  %38 = fdiv float %23, %18
  %39 = fadd float %38, 1.000000e+00
  %40 = fmul float %39, 5.000000e-01
  %41 = fmul float %40, %36
  %42 = getelementptr inbounds nuw i8, ptr %3, i64 4
  store float %41, ptr %42, align 4, !tbaa !15
  %43 = fcmp ogt float %17, 0.000000e+00
  br i1 %43, label %44, label %45

44:                                               ; preds = %31
  store i32 0, ptr %2, align 4, !tbaa !34
  br label %75

45:                                               ; preds = %31
  store i32 1, ptr %2, align 4, !tbaa !34
  br label %75

46:                                               ; preds = %4
  %47 = fcmp ult float %21, %24
  %48 = add nsw i32 %.sroa.speculated.i, -1
  %49 = sitofp i32 %48 to float
  %50 = getelementptr inbounds nuw i8, ptr %3, i64 4
  br i1 %47, label %63, label %51

51:                                               ; preds = %46
  %52 = fdiv float %17, %21
  %53 = fadd float %52, 1.000000e+00
  %54 = fmul float %53, 5.000000e-01
  %55 = fmul float %54, %49
  store float %55, ptr %3, align 4, !tbaa !13
  %56 = fdiv float %23, %21
  %57 = fadd float %56, 1.000000e+00
  %58 = fmul float %57, 5.000000e-01
  %59 = fmul float %58, %49
  store float %59, ptr %50, align 4, !tbaa !15
  %60 = fcmp ogt float %20, 0.000000e+00
  br i1 %60, label %61, label %62

61:                                               ; preds = %51
  store i32 2, ptr %2, align 4, !tbaa !34
  br label %75

62:                                               ; preds = %51
  store i32 3, ptr %2, align 4, !tbaa !34
  br label %75

63:                                               ; preds = %46
  %64 = fdiv float %17, %24
  %65 = fadd float %64, 1.000000e+00
  %66 = fmul float %65, 5.000000e-01
  %67 = fmul float %66, %49
  store float %67, ptr %3, align 4, !tbaa !13
  %68 = fdiv float %20, %24
  %69 = fadd float %68, 1.000000e+00
  %70 = fmul float %69, 5.000000e-01
  %71 = fmul float %70, %49
  store float %71, ptr %50, align 4, !tbaa !15
  %72 = fcmp ogt float %23, 0.000000e+00
  br i1 %72, label %73, label %74

73:                                               ; preds = %63
  store i32 4, ptr %2, align 4, !tbaa !34
  br label %75

74:                                               ; preds = %63
  store i32 5, ptr %2, align 4, !tbaa !34
  br label %75

75:                                               ; preds = %45, %44, %73, %74, %61, %62, %29
  ret void
}